(dp0
I109121242
(dp1
S'next_post_allowed'
p2
S''
p3
sS'screen_name'
p4
S'@modalexii'
p5
sS'permaban'
p6
I00
sS'throttle_factor'
p7
I1
sS'bypass_filters'
p8
I00
sS'accepted_tweets'
p9
(lp10
sS'rejected_tweets'
p11
(lp12
ss.